# SymbolsHelper-Confirmed: 2.0.7 amd64
libdtkwm.so.2 libdtkwm2 #MINVER#
 _ZN10QByteArrayD1Ev@Base 2.0.7
 _ZN10QByteArrayD2Ev@Base 2.0.7
 _ZN3Dtk2Wm14DWindowManager10getWindowsEv@Base 2.0.7
 _ZN3Dtk2Wm14DWindowManager10killWindowEj@Base 2.0.7
 _ZN3Dtk2Wm14DWindowManager11getAtomNameEj@Base 2.0.7
 _ZN3Dtk2Wm14DWindowManager11getPropertyEj7QStringj@Base 2.0.7
 _ZN3Dtk2Wm14DWindowManager11qt_metacallEN11QMetaObject4CallEiPPv@Base 2.0.7
 _ZN3Dtk2Wm14DWindowManager11qt_metacastEPKc@Base 2.0.7
 _ZN3Dtk2Wm14DWindowManager12getWindowPidEj@Base 2.0.7
 _ZN3Dtk2Wm14DWindowManager13getWindowIconEji@Base 2.0.7
 _ZN3Dtk2Wm14DWindowManager13getWindowNameEj@Base 2.0.7
 _ZN3Dtk2Wm14DWindowManager13getWindowRectEj@Base 2.0.7
 _ZN3Dtk2Wm14DWindowManager13setWindowBlurEiR7QVectorIjE@Base 2.0.7
 _ZN3Dtk2Wm14DWindowManager14getWindowClassEj@Base 2.0.7
 _ZN3Dtk2Wm14DWindowManager14getWindowTypesEj@Base 2.0.7
 _ZN3Dtk2Wm14DWindowManager15getWindowStatesEj@Base 2.0.7
 _ZN3Dtk2Wm14DWindowManager15translateCoordsEjRiS2_@Base 2.0.7
 _ZN3Dtk2Wm14DWindowManager16staticMetaObjectE@Base 2.0.7
 _ZN3Dtk2Wm14DWindowManager17getRootWindowRectEv@Base 2.0.7
 _ZN3Dtk2Wm14DWindowManager17setRootWindowRectE5QRect@Base 2.0.7
 _ZN3Dtk2Wm14DWindowManager18getWindowWorkspaceEj@Base 2.0.7
 _ZN3Dtk2Wm14DWindowManager19getCurrentWorkspaceEj@Base 2.0.7
 _ZN3Dtk2Wm14DWindowManager21getWindowFlatpakAppidEj@Base 2.0.7
 _ZN3Dtk2Wm14DWindowManager21getWindowFrameExtentsEj@Base 2.0.7
 _ZN3Dtk2Wm14DWindowManager22adjustRectInScreenAreaENS0_10WindowRectE@Base 2.0.7
 _ZN3Dtk2Wm14DWindowManager7getAtomE7QString@Base 2.0.7
 _ZN3Dtk2Wm14DWindowManagerC1EP7QObject@Base 2.0.7
 _ZN3Dtk2Wm14DWindowManagerC2EP7QObject@Base 2.0.7
 _ZN3Dtk2Wm14DWindowManagerD0Ev@Base 2.0.7
 _ZN3Dtk2Wm14DWindowManagerD1Ev@Base 2.0.7
 _ZN3Dtk2Wm14DWindowManagerD2Ev@Base 2.0.7
 _ZN3Dtk2Wm17screenWindowsUtilE@Base 2.0.7
 _ZN3Dtk2Wm18DScreenWindowsUtil11qt_metacallEN11QMetaObject4CallEiPPv@Base 2.0.7
 _ZN3Dtk2Wm18DScreenWindowsUtil11qt_metacastEPKc@Base 2.0.7
 _ZN3Dtk2Wm18DScreenWindowsUtil16staticMetaObjectE@Base 2.0.7
 _ZN3Dtk2Wm18DScreenWindowsUtil8instanceE6QPoint@Base 2.0.7
 _ZN3Dtk2Wm18DScreenWindowsUtilC1E6QPointP7QObject@Base 2.0.7
 _ZN3Dtk2Wm18DScreenWindowsUtilC2E6QPointP7QObject@Base 2.0.7
 _ZN3Dtk2Wm18DScreenWindowsUtilD0Ev@Base 2.0.7
 _ZN3Dtk2Wm18DScreenWindowsUtilD1Ev@Base 2.0.7
 _ZN3Dtk2Wm18DScreenWindowsUtilD2Ev@Base 2.0.7
 _ZN3Dtk2Wm21DWindowManagerPrivateD0Ev@Base 2.0.7
 _ZN3Dtk2Wm21DWindowManagerPrivateD1Ev@Base 2.0.7
 _ZN3Dtk2Wm21DWindowManagerPrivateD2Ev@Base 2.0.7
 _ZN3Dtk2Wm25DScreenWindowsUtilPrivateD0Ev@Base 2.0.7
 _ZN3Dtk2Wm25DScreenWindowsUtilPrivateD1Ev@Base 2.0.7
 _ZN3Dtk2Wm25DScreenWindowsUtilPrivateD2Ev@Base 2.0.7
 (optional=templinst)_ZN5QListI10QByteArrayE13detach_helperEi@Base 2.0.7
 (optional=templinst)_ZN5QListI10QByteArrayED1Ev@Base 2.0.7
 (optional=templinst)_ZN5QListI10QByteArrayED2Ev@Base 2.0.7
 (optional=templinst)_ZN5QListI5QRectE18detach_helper_growEii@Base 2.0.7
 (optional=templinst)_ZN5QListI5QRectE6appendERKS0_@Base 2.0.7
 (optional=templinst)_ZN5QListI7QStringE18detach_helper_growEii@Base 2.0.7
 (optional=templinst)_ZN5QListI7QStringE6appendERKS0_@Base 2.0.7
 (optional=templinst)_ZN5QListI7QStringEC1ERKS1_@Base 2.0.7
 (optional=templinst)_ZN5QListI7QStringEC2ERKS1_@Base 2.0.7
 (optional=templinst)_ZN5QListI7QStringED1Ev@Base 2.0.7
 (optional=templinst)_ZN5QListI7QStringED2Ev@Base 2.0.7
 (optional=templinst)_ZN5QListIP7QScreenE13detach_helperEi@Base 2.0.7
 (optional=templinst)_ZN5QListIP7QScreenED1Ev@Base 2.0.7
 (optional=templinst)_ZN5QListIP7QScreenED2Ev@Base 2.0.7
 (optional=templinst)_ZN5QListIiE18detach_helper_growEii@Base 2.0.7
 (optional=templinst)_ZN5QListIiE6appendERKi@Base 2.0.7
 (optional=templinst)_ZN5QListIiED1Ev@Base 2.0.7
 (optional=templinst)_ZN5QListIiED2Ev@Base 2.0.7
 (optional=templinst)_ZN5QListIjE13detach_helperEi@Base 2.0.7
 (optional=templinst)_ZN5QListIjE18detach_helper_growEii@Base 2.0.7
 (optional=templinst)_ZN5QListIjE6appendERKj@Base 2.0.7
 (optional=templinst)_ZN5QListIjED1Ev@Base 2.0.7
 (optional=templinst)_ZN5QListIjED2Ev@Base 2.0.7
 _ZN7QStringD1Ev@Base 2.0.7
 _ZN7QStringD2Ev@Base 2.0.7
 _ZNK3Dtk2Wm14DWindowManager10metaObjectEv@Base 2.0.7
 _ZNK3Dtk2Wm18DScreenWindowsUtil10metaObjectEv@Base 2.0.7
 _ZNK3Dtk2Wm18DScreenWindowsUtil11windowsNameEv@Base 2.0.7
 _ZNK3Dtk2Wm18DScreenWindowsUtil11windowsRectEv@Base 2.0.7
 _ZNK3Dtk2Wm18DScreenWindowsUtil12getScreenNumEv@Base 2.0.7
 _ZNK3Dtk2Wm18DScreenWindowsUtil12rootWindowIdEv@Base 2.0.7
 _ZNK3Dtk2Wm18DScreenWindowsUtil13primaryScreenEv@Base 2.0.7
 _ZNK3Dtk2Wm18DScreenWindowsUtil14backgroundRectEv@Base 2.0.7
 _ZNK3Dtk2Wm18DScreenWindowsUtil14isPrimayScreenEv@Base 2.0.7
 _ZTIN3Dtk2Wm14DWindowManagerE@Base 2.0.7
 _ZTIN3Dtk2Wm18DScreenWindowsUtilE@Base 2.0.7
 _ZTIN3Dtk2Wm21DWindowManagerPrivateE@Base 2.0.7
 _ZTIN3Dtk2Wm25DScreenWindowsUtilPrivateE@Base 2.0.7
 _ZTSN3Dtk2Wm14DWindowManagerE@Base 2.0.7
 _ZTSN3Dtk2Wm18DScreenWindowsUtilE@Base 2.0.7
 _ZTSN3Dtk2Wm21DWindowManagerPrivateE@Base 2.0.7
 _ZTSN3Dtk2Wm25DScreenWindowsUtilPrivateE@Base 2.0.7
 _ZTVN3Dtk2Wm14DWindowManagerE@Base 2.0.7
 _ZTVN3Dtk2Wm18DScreenWindowsUtilE@Base 2.0.7
 _ZTVN3Dtk2Wm21DWindowManagerPrivateE@Base 2.0.7
 _ZTVN3Dtk2Wm25DScreenWindowsUtilPrivateE@Base 2.0.7
 (c++)"non-virtual thunk to Dtk::Wm::DScreenWindowsUtil::~DScreenWindowsUtil()@Base" 2.0.7
 (c++)"non-virtual thunk to Dtk::Wm::DWindowManager::~DWindowManager()@Base" 2.0.7
